
scull.ko:     file format elf64-x86-64

Disassembly of section .text:

0000000000000000 <scull_llseek>:
	return retval;
}

loff_t scull_llseek (struct file *filp, loff_t off, int whence)
{
   0:	55                   	push   %rbp
   1:	48 89 e5             	mov    %rsp,%rbp
   4:	e8 00 00 00 00       	callq  9 <scull_llseek+0x9>
	return 0;
}
   9:	b8 00 00 00 00       	mov    $0x0,%eax
   e:	c9                   	leaveq 
   f:	c3                   	retq   

0000000000000010 <scull_ioctl>:

long scull_ioctl (struct file *filp, unsigned int cmd, unsigned long arg)
{
  10:	55                   	push   %rbp
  11:	48 89 e5             	mov    %rsp,%rbp
  14:	e8 00 00 00 00       	callq  19 <scull_ioctl+0x9>
	return 0;
}
  19:	b8 00 00 00 00       	mov    $0x0,%eax
  1e:	c9                   	leaveq 
  1f:	c3                   	retq   

0000000000000020 <scull_release>:

int scull_open (struct inode *inode, struct file *filp)
{
	struct scull_dev *dev;

	dev = container_of (inode->i_cdev, struct scull_dev, cdev);
	filp->private_data = dev;

	if ((filp->f_flags & O_ACCMODE) == O_WRONLY)
	{
		if (down_interruptible (&dev->sem) != 0)
			return -ERESTARTSYS;
		scull_trim (dev);
		up (&dev->sem);
	}

	return 0;
}

int scull_release (struct inode *inode, struct file *filep)
{
  20:	55                   	push   %rbp
  21:	48 89 e5             	mov    %rsp,%rbp
  24:	e8 00 00 00 00       	callq  29 <scull_release+0x9>
	return 0;
}
  29:	b8 00 00 00 00       	mov    $0x0,%eax
  2e:	c9                   	leaveq 
  2f:	c3                   	retq   

0000000000000030 <scull_trim>:



static void scull_setup_cdev (struct scull_dev *dev, int index)
{
	int err;
	int devno = MKDEV(scull_major, scull_minor + index);

	cdev_init (&dev->cdev, &scull_fops);
	dev->cdev.owner = THIS_MODULE;
	// dev->cdev.ops = &scull_fops; /* we don't need to do that */
	err = cdev_add (&dev->cdev, devno, 1);
	if (err)
		printk (KERN_NOTICE "Error %d adding scull%d", err, index);
}

int scull_trim (struct scull_dev *dev)
{
  30:	55                   	push   %rbp
  31:	48 89 e5             	mov    %rsp,%rbp
  34:	41 57                	push   %r15
  36:	41 56                	push   %r14
  38:	41 55                	push   %r13
  3a:	41 54                	push   %r12
  3c:	53                   	push   %rbx
  3d:	48 83 ec 08          	sub    $0x8,%rsp
  41:	e8 00 00 00 00       	callq  46 <scull_trim+0x16>
  46:	49 89 ff             	mov    %rdi,%r15
	struct scull_qset *next, *dptr;
	int qset = dev->qset;
  49:	44 8b 77 0c          	mov    0xc(%rdi),%r14d
	int i;

	for (dptr = dev->data; dptr; dptr = next)
  4d:	4c 8b 2f             	mov    (%rdi),%r13
  50:	4d 85 ed             	test   %r13,%r13
  53:	74 56                	je     ab <scull_trim+0x7b>
	{
		if (dptr->data)
  55:	49 83 7d 00 00       	cmpq   $0x0,0x0(%r13)
  5a:	74 3b                	je     97 <scull_trim+0x67>
		{
			for (i = 0; i < qset; i++)
  5c:	45 85 f6             	test   %r14d,%r14d
  5f:	7e 25                	jle    86 <scull_trim+0x56>
  61:	41 bc 00 00 00 00    	mov    $0x0,%r12d
  67:	bb 00 00 00 00       	mov    $0x0,%ebx
				kfree (dptr->data[i]); /* kfree(NULL) is OK */
  6c:	49 8b 45 00          	mov    0x0(%r13),%rax
  70:	48 8b 3c 18          	mov    (%rax,%rbx,1),%rdi
  74:	e8 00 00 00 00       	callq  79 <scull_trim+0x49>
  79:	41 83 c4 01          	add    $0x1,%r12d
  7d:	48 83 c3 08          	add    $0x8,%rbx
  81:	45 39 f4             	cmp    %r14d,%r12d
  84:	75 e6                	jne    6c <scull_trim+0x3c>
			kfree (dptr->data);
  86:	49 8b 7d 00          	mov    0x0(%r13),%rdi
  8a:	e8 00 00 00 00       	callq  8f <scull_trim+0x5f>
			dptr->data = NULL;
  8f:	49 c7 45 00 00 00 00 	movq   $0x0,0x0(%r13)
  96:	00 
		}
		next = dptr->next;
  97:	49 8b 5d 08          	mov    0x8(%r13),%rbx
		kfree (dptr);
  9b:	4c 89 ef             	mov    %r13,%rdi
  9e:	e8 00 00 00 00       	callq  a3 <scull_trim+0x73>
  a3:	49 89 dd             	mov    %rbx,%r13
  a6:	48 85 db             	test   %rbx,%rbx
  a9:	75 aa                	jne    55 <scull_trim+0x25>
	}
	dev->size = 0;
  ab:	49 c7 47 10 00 00 00 	movq   $0x0,0x10(%r15)
  b2:	00 
	dev->quantum = scull_quantum;
  b3:	8b 05 00 00 00 00    	mov    0(%rip),%eax        # b9 <scull_trim+0x89>
  b9:	41 89 47 08          	mov    %eax,0x8(%r15)
	dev->qset = scull_qset;
  bd:	8b 05 00 00 00 00    	mov    0(%rip),%eax        # c3 <scull_trim+0x93>
  c3:	41 89 47 0c          	mov    %eax,0xc(%r15)
	dev->data = NULL;
  c7:	49 c7 07 00 00 00 00 	movq   $0x0,(%r15)
	return 0;
	return 0;
}
  ce:	b8 00 00 00 00       	mov    $0x0,%eax
  d3:	48 83 c4 08          	add    $0x8,%rsp
  d7:	5b                   	pop    %rbx
  d8:	41 5c                	pop    %r12
  da:	41 5d                	pop    %r13
  dc:	41 5e                	pop    %r14
  de:	41 5f                	pop    %r15
  e0:	c9                   	leaveq 
  e1:	c3                   	retq   

00000000000000e2 <cleanup_module>:

void scull_cleanup_module (void)
{
  e2:	55                   	push   %rbp
  e3:	48 89 e5             	mov    %rsp,%rbp
  e6:	41 56                	push   %r14
  e8:	41 55                	push   %r13
  ea:	41 54                	push   %r12
  ec:	53                   	push   %rbx
  ed:	e8 00 00 00 00       	callq  f2 <cleanup_module+0x10>
	int i;
	dev_t devno = MKDEV (scull_major, scull_minor);
  f2:	44 8b 35 00 00 00 00 	mov    0(%rip),%r14d        # f9 <cleanup_module+0x17>
  f9:	44 8b 2d 00 00 00 00 	mov    0(%rip),%r13d        # 100 <cleanup_module+0x1e>

	PDEBUG ("goodbye cruial world!\n");
 100:	48 c7 c7 00 00 00 00 	mov    $0x0,%rdi
 107:	b8 00 00 00 00       	mov    $0x0,%eax
 10c:	e8 00 00 00 00       	callq  111 <cleanup_module+0x2f>
	
	if (scull_devices)
 111:	48 83 3d 00 00 00 00 	cmpq   $0x0,0(%rip)        # 119 <cleanup_module+0x37>
 118:	00 
 119:	74 56                	je     171 <cleanup_module+0x8f>
	{
		for (i = 0; i < scull_nr_devs; i++)
 11b:	83 3d 00 00 00 00 00 	cmpl   $0x0,0(%rip)        # 122 <cleanup_module+0x40>
 122:	7e 41                	jle    165 <cleanup_module+0x83>
 124:	41 bc 00 00 00 00    	mov    $0x0,%r12d
 12a:	bb 00 00 00 00       	mov    $0x0,%ebx
		{
			scull_trim (&scull_devices[i]);
 12f:	48 89 df             	mov    %rbx,%rdi
 132:	48 03 3d 00 00 00 00 	add    0(%rip),%rdi        # 139 <cleanup_module+0x57>
 139:	e8 00 00 00 00       	callq  13e <cleanup_module+0x5c>
			cdev_del (&scull_devices[i].cdev);
 13e:	48 89 df             	mov    %rbx,%rdi
 141:	48 03 3d 00 00 00 00 	add    0(%rip),%rdi        # 148 <cleanup_module+0x66>
 148:	48 83 c7 38          	add    $0x38,%rdi
 14c:	e8 00 00 00 00       	callq  151 <cleanup_module+0x6f>
 151:	41 83 c4 01          	add    $0x1,%r12d
 155:	48 81 c3 a0 00 00 00 	add    $0xa0,%rbx
 15c:	44 39 25 00 00 00 00 	cmp    %r12d,0(%rip)        # 163 <cleanup_module+0x81>
 163:	7f ca                	jg     12f <cleanup_module+0x4d>
		}
		kfree (scull_devices);
 165:	48 8b 3d 00 00 00 00 	mov    0(%rip),%rdi        # 16c <cleanup_module+0x8a>
 16c:	e8 00 00 00 00       	callq  171 <cleanup_module+0x8f>
	}

	unregister_chrdev_region (devno, scull_nr_devs);
 171:	8b 35 00 00 00 00    	mov    0(%rip),%esi        # 177 <cleanup_module+0x95>
 177:	44 89 f7             	mov    %r14d,%edi
 17a:	c1 e7 14             	shl    $0x14,%edi
 17d:	44 09 ef             	or     %r13d,%edi
 180:	e8 00 00 00 00       	callq  185 <cleanup_module+0xa3>
}
 185:	5b                   	pop    %rbx
 186:	41 5c                	pop    %r12
 188:	41 5d                	pop    %r13
 18a:	41 5e                	pop    %r14
 18c:	c9                   	leaveq 
 18d:	c3                   	retq   

000000000000018e <scull_open>:
 18e:	55                   	push   %rbp
 18f:	48 89 e5             	mov    %rsp,%rbp
 192:	48 83 ec 10          	sub    $0x10,%rsp
 196:	48 89 1c 24          	mov    %rbx,(%rsp)
 19a:	4c 89 64 24 08       	mov    %r12,0x8(%rsp)
 19f:	e8 00 00 00 00       	callq  1a4 <scull_open+0x16>
 1a4:	48 8b 9f f0 01 00 00 	mov    0x1f0(%rdi),%rbx
 1ab:	48 83 eb 38          	sub    $0x38,%rbx
 1af:	48 89 9e a0 00 00 00 	mov    %rbx,0xa0(%rsi)
 1b6:	8b 46 38             	mov    0x38(%rsi),%eax
 1b9:	83 e0 03             	and    $0x3,%eax
 1bc:	ba 00 00 00 00       	mov    $0x0,%edx
 1c1:	83 f8 01             	cmp    $0x1,%eax
 1c4:	75 2a                	jne    1f0 <scull_open+0x62>
 1c6:	4c 8d 63 20          	lea    0x20(%rbx),%r12
 1ca:	4c 89 e7             	mov    %r12,%rdi
 1cd:	e8 00 00 00 00       	callq  1d2 <scull_open+0x44>
 1d2:	ba 00 fe ff ff       	mov    $0xfffffe00,%edx
 1d7:	85 c0                	test   %eax,%eax
 1d9:	75 15                	jne    1f0 <scull_open+0x62>
 1db:	48 89 df             	mov    %rbx,%rdi
 1de:	e8 00 00 00 00       	callq  1e3 <scull_open+0x55>
 1e3:	4c 89 e7             	mov    %r12,%rdi
 1e6:	e8 00 00 00 00       	callq  1eb <scull_open+0x5d>
 1eb:	ba 00 00 00 00       	mov    $0x0,%edx
 1f0:	89 d0                	mov    %edx,%eax
 1f2:	48 8b 1c 24          	mov    (%rsp),%rbx
 1f6:	4c 8b 64 24 08       	mov    0x8(%rsp),%r12
 1fb:	c9                   	leaveq 
 1fc:	c3                   	retq   

00000000000001fd <scull_follow>:
 1fd:	55                   	push   %rbp
 1fe:	48 89 e5             	mov    %rsp,%rbp
 201:	41 57                	push   %r15
 203:	41 56                	push   %r14
 205:	41 55                	push   %r13
 207:	41 54                	push   %r12
 209:	53                   	push   %rbx
 20a:	48 83 ec 18          	sub    $0x18,%rsp
 20e:	e8 00 00 00 00       	callq  213 <scull_follow+0x16>
 213:	49 89 fd             	mov    %rdi,%r13
 216:	41 89 f6             	mov    %esi,%r14d
 219:	4c 8b 27             	mov    (%rdi),%r12
 21c:	4d 85 e4             	test   %r12,%r12
 21f:	75 7e                	jne    29f <scull_follow+0xa2>
		if (flags & GFP_DMA)
			cachep = malloc_sizes[i].cs_dmacachep;
		else
#endif
			cachep = malloc_sizes[i].cs_cachep;
 221:	48 8b 1d 00 00 00 00 	mov    0(%rip),%rbx        # 228 <scull_follow+0x2b>

		ret = kmem_cache_alloc_notrace(cachep, flags);
 228:	be d0 00 00 00       	mov    $0xd0,%esi
 22d:	48 89 df             	mov    %rbx,%rdi
 230:	e8 00 00 00 00       	callq  235 <scull_follow+0x38>
 235:	49 89 c4             	mov    %rax,%r12

		trace_kmalloc(_THIS_IP_, ret,
 238:	48 89 df             	mov    %rbx,%rdi
 23b:	e8 00 00 00 00       	callq  240 <scull_follow+0x43>
 240:	48 89 45 c0          	mov    %rax,0xffffffffffffffc0(%rbp)
 244:	4d 89 e7             	mov    %r12,%r15
	{(unsigned long)__GFP_RECLAIMABLE,	"GFP_RECLAIMABLE"},	\
	{(unsigned long)__GFP_MOVABLE,		"GFP_MOVABLE"}		\
	) : "GFP_NOWAIT"

TRACE_EVENT(kmalloc,
 247:	83 3d 00 00 00 00 00 	cmpl   $0x0,0(%rip)        # 24e <scull_follow+0x51>
 24e:	74 31                	je     281 <scull_follow+0x84>
 250:	48 8b 1d 00 00 00 00 	mov    0(%rip),%rbx        # 257 <scull_follow+0x5a>
 257:	48 85 db             	test   %rbx,%rbx
 25a:	74 25                	je     281 <scull_follow+0x84>
 25c:	41 b8 d0 00 00 00    	mov    $0xd0,%r8d
 262:	48 8b 4d c0          	mov    0xffffffffffffffc0(%rbp),%rcx
 266:	ba 10 00 00 00       	mov    $0x10,%edx
 26b:	4c 89 fe             	mov    %r15,%rsi
 26e:	48 c7 c7 00 00 00 00 	mov    $0x0,%rdi
 275:	ff 13                	callq  *(%rbx)
 277:	48 83 c3 08          	add    $0x8,%rbx
 27b:	48 83 3b 00          	cmpq   $0x0,(%rbx)
 27f:	75 db                	jne    25c <scull_follow+0x5f>
 281:	4d 89 65 00          	mov    %r12,0x0(%r13)
 285:	4d 85 e4             	test   %r12,%r12
 288:	0f 84 ce 00 00 00    	je     35c <scull_follow+0x15f>
 28e:	49 c7 04 24 00 00 00 	movq   $0x0,(%r12)
 295:	00 
 296:	49 c7 44 24 08 00 00 	movq   $0x0,0x8(%r12)
 29d:	00 00 
 29f:	45 85 f6             	test   %r14d,%r14d
 2a2:	0f 84 b4 00 00 00    	je     35c <scull_follow+0x15f>
 2a8:	41 bd 00 00 00 00    	mov    $0x0,%r13d
 2ae:	49 83 7c 24 08 00    	cmpq   $0x0,0x8(%r12)
 2b4:	0f 85 90 00 00 00    	jne    34a <scull_follow+0x14d>
		if (flags & GFP_DMA)
			cachep = malloc_sizes[i].cs_dmacachep;
		else
#endif
			cachep = malloc_sizes[i].cs_cachep;
 2ba:	48 8b 1d 00 00 00 00 	mov    0(%rip),%rbx        # 2c1 <scull_follow+0xc4>

		ret = kmem_cache_alloc_notrace(cachep, flags);
 2c1:	be d0 00 00 00       	mov    $0xd0,%esi
 2c6:	48 89 df             	mov    %rbx,%rdi
 2c9:	e8 00 00 00 00       	callq  2ce <scull_follow+0xd1>
 2ce:	49 89 c7             	mov    %rax,%r15

		trace_kmalloc(_THIS_IP_, ret,
 2d1:	48 89 df             	mov    %rbx,%rdi
 2d4:	e8 00 00 00 00       	callq  2d9 <scull_follow+0xdc>
 2d9:	48 89 45 d0          	mov    %rax,0xffffffffffffffd0(%rbp)
 2dd:	4c 89 fb             	mov    %r15,%rbx
	{(unsigned long)__GFP_RECLAIMABLE,	"GFP_RECLAIMABLE"},	\
	{(unsigned long)__GFP_MOVABLE,		"GFP_MOVABLE"}		\
	) : "GFP_NOWAIT"

TRACE_EVENT(kmalloc,
 2e0:	83 3d 00 00 00 00 00 	cmpl   $0x0,0(%rip)        # 2e7 <scull_follow+0xea>
 2e7:	74 3e                	je     327 <scull_follow+0x12a>
 2e9:	48 8b 05 00 00 00 00 	mov    0(%rip),%rax        # 2f0 <scull_follow+0xf3>
 2f0:	48 89 45 c8          	mov    %rax,0xffffffffffffffc8(%rbp)
 2f4:	48 85 c0             	test   %rax,%rax
 2f7:	74 2e                	je     327 <scull_follow+0x12a>
 2f9:	41 b8 d0 00 00 00    	mov    $0xd0,%r8d
 2ff:	48 8b 4d d0          	mov    0xffffffffffffffd0(%rbp),%rcx
 303:	ba 10 00 00 00       	mov    $0x10,%edx
 308:	48 89 de             	mov    %rbx,%rsi
 30b:	48 c7 c7 00 00 00 00 	mov    $0x0,%rdi
 312:	48 8b 45 c8          	mov    0xffffffffffffffc8(%rbp),%rax
 316:	ff 10                	callq  *(%rax)
 318:	48 83 45 c8 08       	addq   $0x8,0xffffffffffffffc8(%rbp)
 31d:	48 8b 45 c8          	mov    0xffffffffffffffc8(%rbp),%rax
 321:	48 83 38 00          	cmpq   $0x0,(%rax)
 325:	75 d2                	jne    2f9 <scull_follow+0xfc>
 327:	4d 89 7c 24 08       	mov    %r15,0x8(%r12)
 32c:	4d 85 ff             	test   %r15,%r15
 32f:	75 08                	jne    339 <scull_follow+0x13c>
 331:	41 bc 00 00 00 00    	mov    $0x0,%r12d
 337:	eb 23                	jmp    35c <scull_follow+0x15f>
 339:	49 c7 04 24 00 00 00 	movq   $0x0,(%r12)
 340:	00 
 341:	49 c7 44 24 08 00 00 	movq   $0x0,0x8(%r12)
 348:	00 00 
 34a:	4d 8b 64 24 08       	mov    0x8(%r12),%r12
 34f:	41 83 c5 01          	add    $0x1,%r13d
 353:	45 39 f5             	cmp    %r14d,%r13d
 356:	0f 85 52 ff ff ff    	jne    2ae <scull_follow+0xb1>
 35c:	4c 89 e0             	mov    %r12,%rax
 35f:	48 83 c4 18          	add    $0x18,%rsp
 363:	5b                   	pop    %rbx
 364:	41 5c                	pop    %r12
 366:	41 5d                	pop    %r13
 368:	41 5e                	pop    %r14
 36a:	41 5f                	pop    %r15
 36c:	c9                   	leaveq 
 36d:	c3                   	retq   

000000000000036e <scull_write>:
 36e:	55                   	push   %rbp
 36f:	48 89 e5             	mov    %rsp,%rbp
 372:	48 83 ec 50          	sub    $0x50,%rsp
 376:	48 89 5d d8          	mov    %rbx,0xffffffffffffffd8(%rbp)
 37a:	4c 89 65 e0          	mov    %r12,0xffffffffffffffe0(%rbp)
 37e:	4c 89 6d e8          	mov    %r13,0xffffffffffffffe8(%rbp)
 382:	4c 89 75 f0          	mov    %r14,0xfffffffffffffff0(%rbp)
 386:	4c 89 7d f8          	mov    %r15,0xfffffffffffffff8(%rbp)
 38a:	e8 00 00 00 00       	callq  38f <scull_write+0x21>
 38f:	48 89 75 c8          	mov    %rsi,0xffffffffffffffc8(%rbp)
 393:	48 89 55 c0          	mov    %rdx,0xffffffffffffffc0(%rbp)
 397:	48 89 4d b8          	mov    %rcx,0xffffffffffffffb8(%rbp)
 39b:	4c 8b af a0 00 00 00 	mov    0xa0(%rdi),%r13
 3a2:	45 8b 65 08          	mov    0x8(%r13),%r12d
 3a6:	41 8b 45 0c          	mov    0xc(%r13),%eax
 3aa:	89 45 d0             	mov    %eax,0xffffffffffffffd0(%rbp)
 3ad:	49 8d 7d 20          	lea    0x20(%r13),%rdi
 3b1:	e8 00 00 00 00       	callq  3b6 <scull_write+0x48>
 3b6:	49 c7 c6 00 fe ff ff 	mov    $0xfffffffffffffe00,%r14
 3bd:	85 c0                	test   %eax,%eax
 3bf:	0f 85 f6 00 00 00    	jne    4bb <scull_write+0x14d>
 3c5:	48 8b 55 b8          	mov    0xffffffffffffffb8(%rbp),%rdx
 3c9:	48 8b 32             	mov    (%rdx),%rsi
 3cc:	8b 45 d0             	mov    0xffffffffffffffd0(%rbp),%eax
 3cf:	41 0f af c4          	imul   %r12d,%eax
 3d3:	48 98                	cltq   
 3d5:	48 89 f2             	mov    %rsi,%rdx
 3d8:	48 89 c1             	mov    %rax,%rcx
 3db:	48 89 f0             	mov    %rsi,%rax
 3de:	48 c1 fa 3f          	sar    $0x3f,%rdx
 3e2:	48 f7 f9             	idiv   %rcx
 3e5:	48 89 d3             	mov    %rdx,%rbx
 3e8:	89 c6                	mov    %eax,%esi
 3ea:	4c 89 ef             	mov    %r13,%rdi
 3ed:	e8 00 00 00 00       	callq  3f2 <scull_write+0x84>
 3f2:	49 89 c7             	mov    %rax,%r15
 3f5:	48 85 c0             	test   %rax,%rax
 3f8:	0f 84 ad 00 00 00    	je     4ab <scull_write+0x13d>
 3fe:	41 89 de             	mov    %ebx,%r14d
 401:	89 da                	mov    %ebx,%edx
 403:	89 d8                	mov    %ebx,%eax
 405:	c1 fa 1f             	sar    $0x1f,%edx
 408:	41 f7 fc             	idiv   %r12d
 40b:	89 45 d4             	mov    %eax,0xffffffffffffffd4(%rbp)
 40e:	49 83 3f 00          	cmpq   $0x0,(%r15)
 412:	75 33                	jne    447 <scull_write+0xd9>
 414:	48 63 d8             	movslq %eax,%rbx
 417:	48 c1 e3 03          	shl    $0x3,%rbx
			      size, slab_buffer_size(cachep), flags);

		return ret;
	}
	return __kmalloc(size, flags);
 41b:	49 63 fc             	movslq %r12d,%rdi
 41e:	be d0 00 00 00       	mov    $0xd0,%esi
 423:	e8 00 00 00 00       	callq  428 <scull_write+0xba>
 428:	48 89 03             	mov    %rax,(%rbx)
 42b:	49 8b 3f             	mov    (%r15),%rdi
 42e:	48 83 3c 3b 00       	cmpq   $0x0,(%rbx,%rdi,1)
 433:	74 76                	je     4ab <scull_write+0x13d>
 435:	48 63 55 d0          	movslq 0xffffffffffffffd0(%rbp),%rdx
 439:	48 c1 e2 03          	shl    $0x3,%rdx
 43d:	be 00 00 00 00       	mov    $0x0,%esi
 442:	e8 00 00 00 00       	callq  447 <scull_write+0xd9>
 447:	44 89 f2             	mov    %r14d,%edx
 44a:	44 89 f0             	mov    %r14d,%eax
 44d:	c1 fa 1f             	sar    $0x1f,%edx
 450:	41 f7 fc             	idiv   %r12d
 453:	44 89 e0             	mov    %r12d,%eax
 456:	29 d0                	sub    %edx,%eax
 458:	48 63 d8             	movslq %eax,%rbx
 45b:	48 3b 5d c0          	cmp    0xffffffffffffffc0(%rbp),%rbx
 45f:	48 0f 47 5d c0       	cmova  0xffffffffffffffc0(%rbp),%rbx
 464:	48 63 45 d4          	movslq 0xffffffffffffffd4(%rbp),%rax
 468:	48 c1 e0 03          	shl    $0x3,%rax
 46c:	49 03 07             	add    (%r15),%rax
 46f:	48 63 d2             	movslq %edx,%rdx
 472:	48 8b 38             	mov    (%rax),%rdi
 475:	48 01 d7             	add    %rdx,%rdi
 478:	89 da                	mov    %ebx,%edx
 47a:	48 8b 75 c8          	mov    0xffffffffffffffc8(%rbp),%rsi
 47e:	e8 00 00 00 00       	callq  483 <scull_write+0x115>
 483:	49 c7 c6 f2 ff ff ff 	mov    $0xfffffffffffffff2,%r14
 48a:	48 85 c0             	test   %rax,%rax
 48d:	75 23                	jne    4b2 <scull_write+0x144>
 48f:	48 89 d8             	mov    %rbx,%rax
 492:	48 8b 55 b8          	mov    0xffffffffffffffb8(%rbp),%rdx
 496:	48 03 02             	add    (%rdx),%rax
 499:	48 89 02             	mov    %rax,(%rdx)
 49c:	49 89 de             	mov    %rbx,%r14
 49f:	49 39 45 10          	cmp    %rax,0x10(%r13)
 4a3:	73 0d                	jae    4b2 <scull_write+0x144>
 4a5:	49 89 45 10          	mov    %rax,0x10(%r13)
 4a9:	eb 07                	jmp    4b2 <scull_write+0x144>
 4ab:	49 c7 c6 f4 ff ff ff 	mov    $0xfffffffffffffff4,%r14
 4b2:	49 8d 7d 20          	lea    0x20(%r13),%rdi
 4b6:	e8 00 00 00 00       	callq  4bb <scull_write+0x14d>
 4bb:	4c 89 f0             	mov    %r14,%rax
 4be:	48 8b 5d d8          	mov    0xffffffffffffffd8(%rbp),%rbx
 4c2:	4c 8b 65 e0          	mov    0xffffffffffffffe0(%rbp),%r12
 4c6:	4c 8b 6d e8          	mov    0xffffffffffffffe8(%rbp),%r13
 4ca:	4c 8b 75 f0          	mov    0xfffffffffffffff0(%rbp),%r14
 4ce:	4c 8b 7d f8          	mov    0xfffffffffffffff8(%rbp),%r15
 4d2:	c9                   	leaveq 
 4d3:	c3                   	retq   

00000000000004d4 <scull_read>:
 4d4:	55                   	push   %rbp
 4d5:	48 89 e5             	mov    %rsp,%rbp
 4d8:	48 83 ec 40          	sub    $0x40,%rsp
 4dc:	48 89 5d d8          	mov    %rbx,0xffffffffffffffd8(%rbp)
 4e0:	4c 89 65 e0          	mov    %r12,0xffffffffffffffe0(%rbp)
 4e4:	4c 89 6d e8          	mov    %r13,0xffffffffffffffe8(%rbp)
 4e8:	4c 89 75 f0          	mov    %r14,0xfffffffffffffff0(%rbp)
 4ec:	4c 89 7d f8          	mov    %r15,0xfffffffffffffff8(%rbp)
 4f0:	e8 00 00 00 00       	callq  4f5 <scull_read+0x21>
 4f5:	48 89 75 c8          	mov    %rsi,0xffffffffffffffc8(%rbp)
 4f9:	49 89 d6             	mov    %rdx,%r14
 4fc:	48 89 4d c0          	mov    %rcx,0xffffffffffffffc0(%rbp)
 500:	48 8b 9f a0 00 00 00 	mov    0xa0(%rdi),%rbx
 507:	44 8b 6b 08          	mov    0x8(%rbx),%r13d
 50b:	44 8b 7b 0c          	mov    0xc(%rbx),%r15d
 50f:	48 8d 43 20          	lea    0x20(%rbx),%rax
 513:	48 89 45 d0          	mov    %rax,0xffffffffffffffd0(%rbp)
 517:	48 89 c7             	mov    %rax,%rdi
 51a:	e8 00 00 00 00       	callq  51f <scull_read+0x4b>
 51f:	49 c7 c4 00 fe ff ff 	mov    $0xfffffffffffffe00,%r12
 526:	85 c0                	test   %eax,%eax
 528:	0f 85 bb 00 00 00    	jne    5e9 <scull_read+0x115>
 52e:	48 8b 55 c0          	mov    0xffffffffffffffc0(%rbp),%rdx
 532:	48 8b 32             	mov    (%rdx),%rsi
 535:	48 8b 4b 10          	mov    0x10(%rbx),%rcx
 539:	48 39 ce             	cmp    %rcx,%rsi
 53c:	0f 83 98 00 00 00    	jae    5da <scull_read+0x106>
 542:	4a 8d 04 36          	lea    (%rsi,%r14,1),%rax
 546:	48 89 ca             	mov    %rcx,%rdx
 549:	48 29 f2             	sub    %rsi,%rdx
 54c:	48 39 c1             	cmp    %rax,%rcx
 54f:	4c 0f 42 f2          	cmovb  %rdx,%r14
 553:	44 89 f8             	mov    %r15d,%eax
 556:	41 0f af c5          	imul   %r13d,%eax
 55a:	48 98                	cltq   
 55c:	48 89 f2             	mov    %rsi,%rdx
 55f:	48 89 c1             	mov    %rax,%rcx
 562:	48 89 f0             	mov    %rsi,%rax
 565:	48 c1 fa 3f          	sar    $0x3f,%rdx
 569:	48 f7 f9             	idiv   %rcx
 56c:	49 89 d4             	mov    %rdx,%r12
 56f:	89 c6                	mov    %eax,%esi
 571:	48 89 df             	mov    %rbx,%rdi
 574:	e8 00 00 00 00       	callq  579 <scull_read+0xa5>
 579:	48 85 c0             	test   %rax,%rax
 57c:	74 5c                	je     5da <scull_read+0x106>
 57e:	48 8b 30             	mov    (%rax),%rsi
 581:	48 85 f6             	test   %rsi,%rsi
 584:	74 54                	je     5da <scull_read+0x106>
 586:	44 89 e2             	mov    %r12d,%edx
 589:	44 89 e0             	mov    %r12d,%eax
 58c:	c1 fa 1f             	sar    $0x1f,%edx
 58f:	41 f7 fd             	idiv   %r13d
 592:	89 d1                	mov    %edx,%ecx
 594:	48 98                	cltq   
 596:	48 8b 14 c6          	mov    (%rsi,%rax,8),%rdx
 59a:	48 85 d2             	test   %rdx,%rdx
 59d:	74 3b                	je     5da <scull_read+0x106>
 59f:	44 89 e8             	mov    %r13d,%eax
 5a2:	29 c8                	sub    %ecx,%eax
 5a4:	48 98                	cltq   
 5a6:	49 39 c6             	cmp    %rax,%r14
 5a9:	48 89 c3             	mov    %rax,%rbx
 5ac:	49 0f 46 de          	cmovbe %r14,%rbx
 5b0:	48 63 f1             	movslq %ecx,%rsi
 5b3:	48 8d 34 32          	lea    (%rdx,%rsi,1),%rsi
 5b7:	89 da                	mov    %ebx,%edx
 5b9:	48 8b 7d c8          	mov    0xffffffffffffffc8(%rbp),%rdi
 5bd:	e8 00 00 00 00       	callq  5c2 <scull_read+0xee>
 5c2:	49 c7 c4 f2 ff ff ff 	mov    $0xfffffffffffffff2,%r12
 5c9:	48 85 c0             	test   %rax,%rax
 5cc:	75 12                	jne    5e0 <scull_read+0x10c>
 5ce:	48 8b 4d c0          	mov    0xffffffffffffffc0(%rbp),%rcx
 5d2:	48 01 19             	add    %rbx,(%rcx)
 5d5:	49 89 dc             	mov    %rbx,%r12
 5d8:	eb 06                	jmp    5e0 <scull_read+0x10c>
 5da:	41 bc 00 00 00 00    	mov    $0x0,%r12d
 5e0:	48 8b 7d d0          	mov    0xffffffffffffffd0(%rbp),%rdi
 5e4:	e8 00 00 00 00       	callq  5e9 <scull_read+0x115>
 5e9:	4c 89 e0             	mov    %r12,%rax
 5ec:	48 8b 5d d8          	mov    0xffffffffffffffd8(%rbp),%rbx
 5f0:	4c 8b 65 e0          	mov    0xffffffffffffffe0(%rbp),%r12
 5f4:	4c 8b 6d e8          	mov    0xffffffffffffffe8(%rbp),%r13
 5f8:	4c 8b 75 f0          	mov    0xfffffffffffffff0(%rbp),%r14
 5fc:	4c 8b 7d f8          	mov    0xfffffffffffffff8(%rbp),%r15
 600:	c9                   	leaveq 
 601:	c3                   	retq   

0000000000000602 <init_module>:

int scull_init_module (void)
{
 602:	55                   	push   %rbp
 603:	48 89 e5             	mov    %rsp,%rbp
 606:	41 57                	push   %r15
 608:	41 56                	push   %r14
 60a:	41 55                	push   %r13
 60c:	41 54                	push   %r12
 60e:	53                   	push   %rbx
 60f:	48 83 ec 18          	sub    $0x18,%rsp
 613:	e8 00 00 00 00       	callq  618 <init_module+0x16>
	int result, i;
	dev_t dev = 0;
 618:	c7 45 d4 00 00 00 00 	movl   $0x0,0xffffffffffffffd4(%rbp)

	PDEBUG ("hello world!\n");
 61f:	48 c7 c7 00 00 00 00 	mov    $0x0,%rdi
 626:	b8 00 00 00 00       	mov    $0x0,%eax
 62b:	e8 00 00 00 00       	callq  630 <init_module+0x2e>

	if (scull_major)
 630:	8b 05 00 00 00 00    	mov    0(%rip),%eax        # 636 <init_module+0x34>
 636:	85 c0                	test   %eax,%eax
 638:	74 24                	je     65e <init_module+0x5c>
	{
		dev = MKDEV (scull_major, scull_minor);
 63a:	89 c7                	mov    %eax,%edi
 63c:	c1 e7 14             	shl    $0x14,%edi
 63f:	0b 3d 00 00 00 00    	or     0(%rip),%edi        # 645 <init_module+0x43>
 645:	89 7d d4             	mov    %edi,0xffffffffffffffd4(%rbp)
		result = register_chrdev_region (dev, scull_nr_devs, "scull");
 648:	8b 35 00 00 00 00    	mov    0(%rip),%esi        # 64e <init_module+0x4c>
 64e:	48 c7 c2 00 00 00 00 	mov    $0x0,%rdx
 655:	e8 00 00 00 00       	callq  65a <init_module+0x58>
 65a:	89 c3                	mov    %eax,%ebx
 65c:	eb 2a                	jmp    688 <init_module+0x86>
	}
	else
	{
		result = alloc_chrdev_region (&dev, scull_minor, scull_nr_devs, "scull");
 65e:	8b 15 00 00 00 00    	mov    0(%rip),%edx        # 664 <init_module+0x62>
 664:	8b 35 00 00 00 00    	mov    0(%rip),%esi        # 66a <init_module+0x68>
 66a:	48 8d 7d d4          	lea    0xffffffffffffffd4(%rbp),%rdi
 66e:	48 c7 c1 00 00 00 00 	mov    $0x0,%rcx
 675:	e8 00 00 00 00       	callq  67a <init_module+0x78>
 67a:	89 c3                	mov    %eax,%ebx
		scull_major = MAJOR(dev);
 67c:	8b 45 d4             	mov    0xffffffffffffffd4(%rbp),%eax
 67f:	c1 e8 14             	shr    $0x14,%eax
 682:	89 05 00 00 00 00    	mov    %eax,0(%rip)        # 688 <init_module+0x86>
	}
	if (result < 0) {
 688:	85 db                	test   %ebx,%ebx
 68a:	79 1c                	jns    6a8 <init_module+0xa6>
		printk (KERN_WARNING "scull: can't get major %d\n", scull_major);
 68c:	8b 35 00 00 00 00    	mov    0(%rip),%esi        # 692 <init_module+0x90>
 692:	48 c7 c7 00 00 00 00 	mov    $0x0,%rdi
 699:	b8 00 00 00 00       	mov    $0x0,%eax
 69e:	e8 00 00 00 00       	callq  6a3 <init_module+0xa1>
 6a3:	e9 3f 01 00 00       	jmpq   7e7 <init_module+0x1e5>
			      size, slab_buffer_size(cachep), flags);

		return ret;
	}
	return __kmalloc(size, flags);
 6a8:	48 63 3d 00 00 00 00 	movslq 0(%rip),%rdi        # 6af <init_module+0xad>
 6af:	48 8d 3c bf          	lea    (%rdi,%rdi,4),%rdi
 6b3:	48 c1 e7 05          	shl    $0x5,%rdi
 6b7:	be d0 00 00 00       	mov    $0xd0,%esi
 6bc:	e8 00 00 00 00       	callq  6c1 <init_module+0xbf>
		return result;
	}

	scull_devices = kmalloc (scull_nr_devs * sizeof (struct scull_dev), GFP_KERNEL);
 6c1:	48 89 05 00 00 00 00 	mov    %rax,0(%rip)        # 6c8 <init_module+0xc6>
	if (scull_devices == NULL)
 6c8:	48 85 c0             	test   %rax,%rax
 6cb:	0f 84 05 01 00 00    	je     7d6 <init_module+0x1d4>
	{
		result = -ENOMEM;
		goto fail;
	}
	memset (scull_devices, 0, scull_nr_devs * sizeof (struct scull_dev));
 6d1:	48 63 15 00 00 00 00 	movslq 0(%rip),%rdx        # 6d8 <init_module+0xd6>
 6d8:	48 8d 14 92          	lea    (%rdx,%rdx,4),%rdx
 6dc:	48 c1 e2 05          	shl    $0x5,%rdx
 6e0:	be 00 00 00 00       	mov    $0x0,%esi
 6e5:	48 89 c7             	mov    %rax,%rdi
 6e8:	e8 00 00 00 00       	callq  6ed <init_module+0xeb>

	for (i = 0; i < scull_nr_devs; i++)
 6ed:	83 3d 00 00 00 00 00 	cmpl   $0x0,0(%rip)        # 6f4 <init_module+0xf2>
 6f4:	0f 8e e8 00 00 00    	jle    7e2 <init_module+0x1e0>
 6fa:	41 bf 00 00 00 00    	mov    $0x0,%r15d
 700:	41 be 00 00 00 00    	mov    $0x0,%r14d
	{
		scull_devices[i].quantum = scull_quantum;
 706:	4c 89 f2             	mov    %r14,%rdx
 709:	48 03 15 00 00 00 00 	add    0(%rip),%rdx        # 710 <init_module+0x10e>
 710:	8b 05 00 00 00 00    	mov    0(%rip),%eax        # 716 <init_module+0x114>
 716:	89 42 08             	mov    %eax,0x8(%rdx)
		scull_devices[i].qset = scull_qset;
 719:	4c 89 f2             	mov    %r14,%rdx
 71c:	48 03 15 00 00 00 00 	add    0(%rip),%rdx        # 723 <init_module+0x121>
 723:	8b 05 00 00 00 00    	mov    0(%rip),%eax        # 729 <init_module+0x127>
 729:	89 42 0c             	mov    %eax,0xc(%rdx)
		sema_init (&scull_devices[i].sem, 1);
 72c:	4c 89 f0             	mov    %r14,%rax
 72f:	48 03 05 00 00 00 00 	add    0(%rip),%rax        # 736 <init_module+0x134>
 736:	48 8d 50 20          	lea    0x20(%rax),%rdx

static inline void sema_init(struct semaphore *sem, int val)
{
	static struct lock_class_key __key;
	*sem = (struct semaphore) __SEMAPHORE_INITIALIZER(*sem, val);
 73a:	48 8d 48 28          	lea    0x28(%rax),%rcx
 73e:	c7 40 20 00 00 00 00 	movl   $0x0,0x20(%rax)
 745:	c7 42 04 01 00 00 00 	movl   $0x1,0x4(%rdx)
 74c:	48 89 4a 08          	mov    %rcx,0x8(%rdx)
 750:	48 89 4a 10          	mov    %rcx,0x10(%rdx)
		scull_setup_cdev (&scull_devices[i], i);
 754:	4d 89 f4             	mov    %r14,%r12
 757:	4c 03 25 00 00 00 00 	add    0(%rip),%r12        # 75e <init_module+0x15c>
 75e:	44 89 fa             	mov    %r15d,%edx
 761:	03 15 00 00 00 00    	add    0(%rip),%edx        # 767 <init_module+0x165>
 767:	8b 05 00 00 00 00    	mov    0(%rip),%eax        # 76d <init_module+0x16b>
 76d:	c1 e0 14             	shl    $0x14,%eax
 770:	41 89 d5             	mov    %edx,%r13d
 773:	41 09 c5             	or     %eax,%r13d
 776:	49 8d 5c 24 38       	lea    0x38(%r12),%rbx
 77b:	48 c7 c6 00 00 00 00 	mov    $0x0,%rsi
 782:	48 89 df             	mov    %rbx,%rdi
 785:	e8 00 00 00 00       	callq  78a <init_module+0x188>
 78a:	49 c7 44 24 78 00 00 	movq   $0x0,0x78(%r12)
 791:	00 00 
 793:	ba 01 00 00 00       	mov    $0x1,%edx
 798:	44 89 ee             	mov    %r13d,%esi
 79b:	48 89 df             	mov    %rbx,%rdi
 79e:	e8 00 00 00 00       	callq  7a3 <init_module+0x1a1>
 7a3:	85 c0                	test   %eax,%eax
 7a5:	74 16                	je     7bd <init_module+0x1bb>
 7a7:	44 89 fa             	mov    %r15d,%edx
 7aa:	89 c6                	mov    %eax,%esi
 7ac:	48 c7 c7 00 00 00 00 	mov    $0x0,%rdi
 7b3:	b8 00 00 00 00       	mov    $0x0,%eax
 7b8:	e8 00 00 00 00       	callq  7bd <init_module+0x1bb>
 7bd:	41 83 c7 01          	add    $0x1,%r15d
 7c1:	49 81 c6 a0 00 00 00 	add    $0xa0,%r14
 7c8:	44 39 3d 00 00 00 00 	cmp    %r15d,0(%rip)        # 7cf <init_module+0x1cd>
 7cf:	7e 11                	jle    7e2 <init_module+0x1e0>
 7d1:	e9 30 ff ff ff       	jmpq   706 <init_module+0x104>
	}

	return 0;

fail:
	scull_cleanup_module();
 7d6:	e8 00 00 00 00       	callq  7db <init_module+0x1d9>
 7db:	bb f4 ff ff ff       	mov    $0xfffffff4,%ebx
 7e0:	eb 05                	jmp    7e7 <init_module+0x1e5>
	return result;
 7e2:	bb 00 00 00 00       	mov    $0x0,%ebx
}
 7e7:	89 d8                	mov    %ebx,%eax
 7e9:	48 83 c4 18          	add    $0x18,%rsp
 7ed:	5b                   	pop    %rbx
 7ee:	41 5c                	pop    %r12
 7f0:	41 5d                	pop    %r13
 7f2:	41 5e                	pop    %r14
 7f4:	41 5f                	pop    %r15
 7f6:	c9                   	leaveq 
 7f7:	c3                   	retq   
Disassembly of section .modinfo:

0000000000000000 <__mod_license18>:
   0:	6c                   	insb   (%dx),%es:(%rdi)
   1:	69 63 65 6e 73 65 3d 	imul   $0x3d65736e,0x65(%rbx),%esp
   8:	47 50                	rexXYZ push   %r8
   a:	4c 00 00             	rex64X add    %r8b,(%rax)
   d:	00 00                	add    %al,(%rax)
	...

0000000000000010 <__mod_scull_qsettype16>:
  10:	70 61                	jo     73 <__mod_scull_minortype13+0x3>
  12:	72 6d                	jb     81 <__mod_scull_minortype13+0x11>
  14:	74 79                	je     8f <__mod_scull_minortype13+0x1f>
  16:	70 65                	jo     7d <__mod_scull_minortype13+0xd>
  18:	3d 73 63 75 6c       	cmp    $0x6c756373,%eax
  1d:	6c                   	insb   (%dx),%es:(%rdi)
  1e:	5f                   	pop    %rdi
  1f:	71 73                	jno    94 <__mod_scull_majortype12+0x4>
  21:	65                   	gs
  22:	74 3a                	je     5e <__mod_scull_nr_devstype14+0xe>
  24:	69 6e 74 00 00 00 00 	imul   $0x0,0x74(%rsi),%ebp
  2b:	00 00                	add    %al,(%rax)
  2d:	00 00                	add    %al,(%rax)
	...

0000000000000030 <__mod_scull_quantumtype15>:
  30:	70 61                	jo     93 <__mod_scull_majortype12+0x3>
  32:	72 6d                	jb     a1 <__mod_scull_majortype12+0x11>
  34:	74 79                	je     af <__mod_scull_majortype12+0x1f>
  36:	70 65                	jo     9d <__mod_scull_majortype12+0xd>
  38:	3d 73 63 75 6c       	cmp    $0x6c756373,%eax
  3d:	6c                   	insb   (%dx),%es:(%rdi)
  3e:	5f                   	pop    %rdi
  3f:	71 75                	jno    b6 <__mod_scull_majortype12+0x26>
  41:	61                   	(bad)  
  42:	6e                   	outsb  %ds:(%rsi),(%dx)
  43:	74 75                	je     ba <__mod_scull_majortype12+0x2a>
  45:	6d                   	insl   (%dx),%es:(%rdi)
  46:	3a 69 6e             	cmp    0x6e(%rcx),%ch
  49:	74 00                	je     4b <__mod_scull_quantumtype15+0x1b>
  4b:	00 00                	add    %al,(%rax)
  4d:	00 00                	add    %al,(%rax)
	...

0000000000000050 <__mod_scull_nr_devstype14>:
  50:	70 61                	jo     b3 <__mod_scull_majortype12+0x23>
  52:	72 6d                	jb     c1 <__mod_srcversion50+0x1>
  54:	74 79                	je     cf <__mod_srcversion50+0xf>
  56:	70 65                	jo     bd <__mod_scull_majortype12+0x2d>
  58:	3d 73 63 75 6c       	cmp    $0x6c756373,%eax
  5d:	6c                   	insb   (%dx),%es:(%rdi)
  5e:	5f                   	pop    %rdi
  5f:	6e                   	outsb  %ds:(%rsi),(%dx)
  60:	72 5f                	jb     c1 <__mod_srcversion50+0x1>
  62:	64                   	fs
  63:	65                   	gs
  64:	76 73                	jbe    d9 <__mod_srcversion50+0x19>
  66:	3a 69 6e             	cmp    0x6e(%rcx),%ch
  69:	74 00                	je     6b <__mod_scull_nr_devstype14+0x1b>
  6b:	00 00                	add    %al,(%rax)
  6d:	00 00                	add    %al,(%rax)
	...

0000000000000070 <__mod_scull_minortype13>:
  70:	70 61                	jo     d3 <__mod_srcversion50+0x13>
  72:	72 6d                	jb     e1 <__mod_srcversion50+0x21>
  74:	74 79                	je     ef <__module_depends+0xc>
  76:	70 65                	jo     dd <__mod_srcversion50+0x1d>
  78:	3d 73 63 75 6c       	cmp    $0x6c756373,%eax
  7d:	6c                   	insb   (%dx),%es:(%rdi)
  7e:	5f                   	pop    %rdi
  7f:	6d                   	insl   (%dx),%es:(%rdi)
  80:	69 6e 6f 72 3a 69 6e 	imul   $0x6e693a72,0x6f(%rsi),%ebp
  87:	74 00                	je     89 <__mod_scull_minortype13+0x19>
  89:	00 00                	add    %al,(%rax)
  8b:	00 00                	add    %al,(%rax)
  8d:	00 00                	add    %al,(%rax)
	...

0000000000000090 <__mod_scull_majortype12>:
  90:	70 61                	jo     f3 <__module_depends+0x10>
  92:	72 6d                	jb     101 <__mod_vermagic5+0x1>
  94:	74 79                	je     10f <__mod_vermagic5+0xf>
  96:	70 65                	jo     fd <__module_depends+0x1a>
  98:	3d 73 63 75 6c       	cmp    $0x6c756373,%eax
  9d:	6c                   	insb   (%dx),%es:(%rdi)
  9e:	5f                   	pop    %rdi
  9f:	6d                   	insl   (%dx),%es:(%rdi)
  a0:	61                   	(bad)  
  a1:	6a 6f                	pushq  $0x6f
  a3:	72 3a                	jb     df <__mod_srcversion50+0x1f>
  a5:	69 6e 74 00 00 00 00 	imul   $0x0,0x74(%rsi),%ebp
	...

00000000000000c0 <__mod_srcversion50>:
  c0:	73 72                	jae    134 <__mod_vermagic5+0x34>
  c2:	63 76 65             	movslq 0x65(%rsi),%esi
  c5:	72 73                	jb     13a <__mod_vermagic5+0x3a>
  c7:	69 6f 6e 3d 31 45 42 	imul   $0x4245313d,0x6e(%rdi),%ebp
  ce:	30 43 41             	xor    %al,0x41(%rbx)
  d1:	35 35 36 32 41       	xor    $0x41323635,%eax
  d6:	36 30 32             	xor    %dh,%ss:(%rdx)
  d9:	35 35 45 44 31       	xor    $0x31444535,%eax
  de:	43 39 44 34 00       	cmp    %eax,0x0(%r12,%r14,1)

00000000000000e3 <__module_depends>:
  e3:	64                   	fs
  e4:	65                   	gs
  e5:	70 65                	jo     14c <__mod_vermagic5+0x4c>
  e7:	6e                   	outsb  %ds:(%rsi),(%dx)
  e8:	64                   	fs
  e9:	73 3d                	jae    128 <__mod_vermagic5+0x28>
	...

0000000000000100 <__mod_vermagic5>:
 100:	76 65                	jbe    167 <__mod_vermagic5+0x67>
 102:	72 6d                	jb     171 <__mod_vermagic5+0x71>
 104:	61                   	(bad)  
 105:	67 69 63 3d 32 2e 36 	addr32 imul $0x2e362e32,0x3d(%ebx),%esp
 10c:	2e 
 10d:	33 32                	xor    (%rdx),%esi
 10f:	2d 33 30 30 2e       	sub    $0x2e303033,%eax
 114:	31 30                	xor    %esi,(%rax)
 116:	2e 31 2e             	xor    %ebp,%cs:(%rsi)
 119:	65                   	gs
 11a:	6c                   	insb   (%dx),%es:(%rdi)
 11b:	35 75 65 6b 20       	xor    $0x206b6575,%eax
 120:	53                   	push   %rbx
 121:	4d 50                	rex64XZ push   %r8
 123:	20 6d 6f             	and    %ch,0x6f(%rbp)
 126:	64                   	fs
 127:	5f                   	pop    %rdi
 128:	75 6e                	jne    198 <scull_open+0xa>
 12a:	6c                   	insb   (%dx),%es:(%rdi)
 12b:	6f                   	outsl  %ds:(%rsi),(%dx)
 12c:	61                   	(bad)  
 12d:	64 20 6d 6f          	and    %ch,%fs:0x6f(%rbp)
 131:	64                   	fs
 132:	76 65                	jbe    199 <scull_open+0xb>
 134:	72 73                	jb     1a9 <scull_open+0x1b>
 136:	69                   	.byte 0x69
 137:	6f                   	outsl  %ds:(%rsi),(%dx)
 138:	6e                   	outsb  %ds:(%rsi),(%dx)
 139:	73 20                	jae    15b <__mod_vermagic5+0x5b>
	...
Disassembly of section __param:

0000000000000000 <__param_scull_qset>:
	...
   8:	24 01                	and    $0x1,%al
	...

0000000000000028 <__param_scull_quantum>:
	...
  30:	24 01                	and    $0x1,%al
	...

0000000000000050 <__param_scull_nr_devs>:
	...
  58:	24 01                	and    $0x1,%al
	...

0000000000000078 <__param_scull_minor>:
	...
  80:	24 01                	and    $0x1,%al
	...

00000000000000a0 <__param_scull_major>:
	...
  a8:	24 01                	and    $0x1,%al
	...
Disassembly of section __mcount_loc:

0000000000000000 <__mcount_loc>:
	...
Disassembly of section __versions:

0000000000000000 <____versions>:
   0:	ac                   	lods   %ds:(%rsi),%al
   1:	41 85 69 00          	test   %ebp,0x0(%r9)
   5:	00 00                	add    %al,(%rax)
   7:	00 6d 6f             	add    %ch,0x6f(%rbp)
   a:	64                   	fs
   b:	75 6c                	jne    79 <____versions+0x79>
   d:	65                   	gs
   e:	5f                   	pop    %rdi
   f:	6c                   	insb   (%dx),%es:(%rdi)
  10:	61                   	(bad)  
  11:	79 6f                	jns    82 <____versions+0x82>
  13:	75 74                	jne    89 <____versions+0x89>
	...
  3d:	00 00                	add    %al,(%rax)
  3f:	00 af 9b 25 76 00    	add    %ch,0x76259b(%rdi)
  45:	00 00                	add    %al,(%rax)
  47:	00 63 64             	add    %ah,0x64(%rbx)
  4a:	65                   	gs
  4b:	76 5f                	jbe    ac <____versions+0xac>
  4d:	64                   	fs
  4e:	65                   	gs
  4f:	6c                   	insb   (%dx),%es:(%rdi)
	...
  80:	5c                   	pop    %rsp
  81:	a4                   	movsb  %ds:(%rsi),%es:(%rdi)
  82:	34 5a                	xor    $0x5a,%al
  84:	00 00                	add    %al,(%rax)
  86:	00 00                	add    %al,(%rax)
  88:	5f                   	pop    %rdi
  89:	5f                   	pop    %rdi
  8a:	6b 6d 61 6c          	imul   $0x6c,0x61(%rbp),%ebp
  8e:	6c                   	insb   (%dx),%es:(%rdi)
  8f:	6f                   	outsl  %ds:(%rsi),(%dx)
  90:	63 00                	movslq (%rax),%eax
	...
  be:	00 00                	add    %al,(%rax)
  c0:	71 02                	jno    c4 <____versions+0xc4>
  c2:	4b 08 00             	rex64YZ or     %al,(%r8)
  c5:	00 00                	add    %al,(%rax)
  c7:	00 63 64             	add    %ah,0x64(%rbx)
  ca:	65                   	gs
  cb:	76 5f                	jbe    12c <____versions+0x12c>
  cd:	69 6e 69 74 00 00 00 	imul   $0x74,0x69(%rsi),%ebp
	...
 100:	91                   	xchg   %eax,%ecx
 101:	fe 80 69 00 00 00    	incb   0x69(%rax)
 107:	00 70 61             	add    %dh,0x61(%rax)
 10a:	72 61                	jb     16d <____versions+0x16d>
 10c:	6d                   	insl   (%dx),%es:(%rdi)
 10d:	5f                   	pop    %rdi
 10e:	67                   	addr32
 10f:	65                   	gs
 110:	74 5f                	je     171 <____versions+0x171>
 112:	69 6e 74 00 00 00 00 	imul   $0x0,0x74(%rsi),%ebp
	...
 13d:	00 00                	add    %al,(%rax)
 13f:	00 f0                	add    %dh,%al
 141:	84 e4                	test   %ah,%ah
 143:	d8 00                	fadds  (%rax)
 145:	00 00                	add    %al,(%rax)
 147:	00 72 65             	add    %dh,0x65(%rdx)
 14a:	67 69 73 74 65 72 5f 	addr32 imul $0x635f7265,0x74(%ebx),%esi
 151:	63 
 152:	68 72 64 65 76       	pushq  $0x76656472
 157:	5f                   	pop    %rdi
 158:	72 65                	jb     1bf <____versions+0x1bf>
 15a:	67 69 6f 6e 00 00 00 	addr32 imul $0x0,0x6e(%edi),%ebp
 161:	00 
	...
 17e:	00 00                	add    %al,(%rax)
 180:	79 ce                	jns    150 <____versions+0x150>
 182:	27                   	(bad)  
 183:	d0 00                	rolb   (%rax)
 185:	00 00                	add    %al,(%rax)
 187:	00 73 6c             	add    %dh,0x6c(%rbx)
 18a:	61                   	(bad)  
 18b:	62                   	(bad)  
 18c:	5f                   	pop    %rdi
 18d:	62                   	(bad)  
 18e:	75 66                	jne    1f6 <____versions+0x1f6>
 190:	66                   	data16
 191:	65                   	gs
 192:	72 5f                	jb     1f3 <____versions+0x1f3>
 194:	73 69                	jae    1ff <____versions+0x1ff>
 196:	7a 65                	jp     1fd <____versions+0x1fd>
	...
 1c0:	05 d7 c7 a4 00       	add    $0xa4c7d7,%eax
 1c5:	00 00                	add    %al,(%rax)
 1c7:	00 6d 61             	add    %ch,0x61(%rbp)
 1ca:	6c                   	insb   (%dx),%es:(%rdi)
 1cb:	6c                   	insb   (%dx),%es:(%rdi)
 1cc:	6f                   	outsl  %ds:(%rsi),(%dx)
 1cd:	63 5f 73             	movslq 0x73(%rdi),%ebx
 1d0:	69 7a 65 73 00 00 00 	imul   $0x73,0x65(%rdx),%edi
	...
 1ff:	00 27                	add    %ah,(%rdi)
 201:	27                   	(bad)  
 202:	5e                   	pop    %rsi
 203:	10 00                	adc    %al,(%rax)
 205:	00 00                	add    %al,(%rax)
 207:	00 5f 5f             	add    %bl,0x5f(%rdi)
 20a:	74 72                	je     27e <____versions+0x27e>
 20c:	61                   	(bad)  
 20d:	63 65 70             	movslq 0x70(%rbp),%esp
 210:	6f                   	outsl  %ds:(%rsi),(%dx)
 211:	69 6e 74 5f 6b 6d 61 	imul   $0x616d6b5f,0x74(%rsi),%ebp
 218:	6c                   	insb   (%dx),%es:(%rdi)
 219:	6c                   	insb   (%dx),%es:(%rdi)
 21a:	6f                   	outsl  %ds:(%rsi),(%dx)
 21b:	63 00                	movslq (%rax),%eax
	...
 23d:	00 00                	add    %al,(%rax)
 23f:	00 f3                	add    %dh,%bl
 241:	55                   	push   %rbp
 242:	4f fc                	rex64XYZ cld    
 244:	00 00                	add    %al,(%rax)
 246:	00 00                	add    %al,(%rax)
 248:	64 6f                	outsl  %fs:(%rsi),(%dx)
 24a:	77 6e                	ja     2ba <____versions+0x2ba>
 24c:	5f                   	pop    %rdi
 24d:	69 6e 74 65 72 72 75 	imul   $0x75727265,0x74(%rsi),%ebp
 254:	70 74                	jo     2ca <____versions+0x2ca>
 256:	69 62 6c 65 00 00 00 	imul   $0x65,0x6c(%rdx),%esp
	...
 27d:	00 00                	add    %al,(%rax)
 27f:	00 5e e1             	add    %bl,0xffffffffffffffe1(%rsi)
 282:	85 74 00 00          	test   %esi,0x0(%rax,%rax,1)
 286:	00 00                	add    %al,(%rax)
 288:	75 6e                	jne    2f8 <____versions+0x2f8>
 28a:	72 65                	jb     2f1 <____versions+0x2f1>
 28c:	67 69 73 74 65 72 5f 	addr32 imul $0x635f7265,0x74(%ebx),%esi
 293:	63 
 294:	68 72 64 65 76       	pushq  $0x76656472
 299:	5f                   	pop    %rdi
 29a:	72 65                	jb     301 <____versions+0x301>
 29c:	67 69 6f 6e 00 00 00 	addr32 imul $0x0,0x6e(%edi),%ebp
 2a3:	00 
	...
 2c0:	25 4b 96 ff 00       	and    $0xff964b,%eax
 2c5:	00 00                	add    %al,(%rax)
 2c7:	00 70 61             	add    %dh,0x61(%rax)
 2ca:	72 61                	jb     32d <____versions+0x32d>
 2cc:	6d                   	insl   (%dx),%es:(%rdi)
 2cd:	5f                   	pop    %rdi
 2ce:	73 65                	jae    335 <____versions+0x335>
 2d0:	74 5f                	je     331 <____versions+0x331>
 2d2:	69 6e 74 00 00 00 00 	imul   $0x0,0x74(%rsi),%ebp
	...
 2fd:	00 00                	add    %al,(%rax)
 2ff:	00 ff                	add    %bh,%bh
 301:	dc 0b                	fmull  (%rbx)
 303:	de 00                	fiadd  (%rax)
 305:	00 00                	add    %al,(%rax)
 307:	00 6d 65             	add    %ch,0x65(%rbp)
 30a:	6d                   	insl   (%dx),%es:(%rdi)
 30b:	73 65                	jae    372 <____versions+0x372>
 30d:	74 00                	je     30f <____versions+0x30f>
	...
 33f:	00 96 95 e9 ee 00    	add    %dl,0xeee995(%rsi)
 345:	00 00                	add    %al,(%rax)
 347:	00 6b 6d             	add    %ch,0x6d(%rbx)
 34a:	65                   	gs
 34b:	6d                   	insl   (%dx),%es:(%rdi)
 34c:	5f                   	pop    %rdi
 34d:	63 61 63             	movslq 0x63(%rcx),%esp
 350:	68 65 5f 61 6c       	pushq  $0x6c615f65
 355:	6c                   	insb   (%dx),%es:(%rdi)
 356:	6f                   	outsl  %ds:(%rsi),(%dx)
 357:	63 5f 6e             	movslq 0x6e(%rdi),%ebx
 35a:	6f                   	outsl  %ds:(%rsi),(%dx)
 35b:	74 72                	je     3cf <____versions+0x3cf>
 35d:	61                   	(bad)  
 35e:	63 65 00             	movslq 0x0(%rbp),%esp
	...
 37d:	00 00                	add    %al,(%rax)
 37f:	00 63 73             	add    %ah,0x73(%rbx)
 382:	14 ea                	adc    $0xea,%al
 384:	00 00                	add    %al,(%rax)
 386:	00 00                	add    %al,(%rax)
 388:	70 72                	jo     3fc <____versions+0x3fc>
 38a:	69 6e 74 6b 00 00 00 	imul   $0x6b,0x74(%rsi),%ebp
	...
 3bd:	00 00                	add    %al,(%rax)
 3bf:	00 66 a2             	add    %ah,0xffffffffffffffa2(%rsi)
 3c2:	f8                   	clc    
 3c3:	85 00                	test   %eax,(%rax)
 3c5:	00 00                	add    %al,(%rax)
 3c7:	00 63 6f             	add    %ah,0x6f(%rbx)
 3ca:	70 79                	jo     445 <____versions+0x445>
 3cc:	5f                   	pop    %rdi
 3cd:	74 6f                	je     43e <____versions+0x43e>
 3cf:	5f                   	pop    %rdi
 3d0:	75 73                	jne    445 <____versions+0x445>
 3d2:	65                   	gs
 3d3:	72 00                	jb     3d5 <____versions+0x3d5>
	...
 3fd:	00 00                	add    %al,(%rax)
 3ff:	00 9a 0f 39 b4 00    	add    %bl,0xb4390f(%rdx)
 405:	00 00                	add    %al,(%rax)
 407:	00 6d 63             	add    %ch,0x63(%rbp)
 40a:	6f                   	outsl  %ds:(%rsi),(%dx)
 40b:	75 6e                	jne    47b <____versions+0x47b>
 40d:	74 00                	je     40f <____versions+0x40f>
	...
 43f:	00 b8 ca 3b 08 00    	add    %bh,0x83bca(%rax)
 445:	00 00                	add    %al,(%rax)
 447:	00 63 64             	add    %ah,0x64(%rbx)
 44a:	65                   	gs
 44b:	76 5f                	jbe    4ac <____versions+0x4ac>
 44d:	61                   	(bad)  
 44e:	64 64 00 00          	add    %al,%fs:(%rax)
	...
 47e:	00 00                	add    %al,(%rax)
 480:	ba 0c 7a 03 00       	mov    $0x37a0c,%edx
 485:	00 00                	add    %al,(%rax)
 487:	00 6b 66             	add    %ch,0x66(%rbx)
 48a:	72 65                	jb     4f1 <____versions+0x4f1>
 48c:	65 00 00             	add    %al,%gs:(%rax)
	...
 4bf:	00 f1                	add    %dh,%cl
 4c1:	99                   	cltd   
 4c2:	18 3f                	sbb    %bh,(%rdi)
 4c4:	00 00                	add    %al,(%rax)
 4c6:	00 00                	add    %al,(%rax)
 4c8:	75 70                	jne    53a <____versions+0x53a>
	...
 4fe:	00 00                	add    %al,(%rax)
 500:	00 b5 02 33 00 00    	add    %dh,0x3302(%rbp)
 506:	00 00                	add    %al,(%rax)
 508:	63 6f 70             	movslq 0x70(%rdi),%ebp
 50b:	79 5f                	jns    56c <____versions+0x56c>
 50d:	66                   	data16
 50e:	72 6f                	jb     57f <____versions+0x57f>
 510:	6d                   	insl   (%dx),%es:(%rdi)
 511:	5f                   	pop    %rdi
 512:	75 73                	jne    587 <scull_read+0xb3>
 514:	65                   	gs
 515:	72 00                	jb     517 <____versions+0x517>
	...
 53f:	00 9e 7c 53 29 00    	add    %bl,0x29537c(%rsi)
 545:	00 00                	add    %al,(%rax)
 547:	00 61 6c             	add    %ah,0x6c(%rcx)
 54a:	6c                   	insb   (%dx),%es:(%rdi)
 54b:	6f                   	outsl  %ds:(%rsi),(%dx)
 54c:	63 5f 63             	movslq 0x63(%rdi),%ebx
 54f:	68 72 64 65 76       	pushq  $0x76656472
 554:	5f                   	pop    %rdi
 555:	72 65                	jb     5bc <scull_read+0xe8>
 557:	67 69 6f 6e 00 00 00 	addr32 imul $0x0,0x6e(%edi),%ebp
 55e:	00 
	...